ccopy_reg
_reconstructor
p0
(crequests.cookies
RequestsCookieJar
p1
c__builtin__
object
p2
Ntp3
Rp4
(dp5
S'_now'
p6
I1479241726
sS'_policy'
p7
(icookielib
DefaultCookiePolicy
p8
(dp9
S'strict_rfc2965_unverifiable'
p10
I01
sS'strict_ns_domain'
p11
I0
sS'_allowed_domains'
p12
NsS'rfc2109_as_netscape'
p13
NsS'rfc2965'
p14
I00
sS'strict_domain'
p15
I00
sS'_now'
p16
I1479241726
sS'strict_ns_set_path'
p17
I00
sS'strict_ns_unverifiable'
p18
I00
sS'strict_ns_set_initial_dollar'
p19
I00
sS'hide_cookie2'
p20
I00
sS'_blocked_domains'
p21
(tsS'netscape'
p22
I01
sbsS'_cookies'
p23
(dp24
S'piazza.com'
p25
(dp26
S'/'
p27
(dp28
S'piazza_session'
p29
(icookielib
Cookie
p30
(dp31
S'comment'
p32
NsS'domain'
p33
g25
sS'name'
p34
g29
sS'domain_initial_dot'
p35
I00
sS'expires'
p36
I1494880126
sS'value'
p37
S'EuuCJxKCuJvvuLuFGHHGtCGFwDKwtGuE.5%275MD%3F5%26x%26%26%7C%22%21r%7Cw5M5Vrab_rFCHht%2B50'
p38
sS'domain_specified'
p39
I00
sS'_rest'
p40
(dp41
S'HttpOnly'
p42
NssS'version'
p43
I0
sS'port_specified'
p44
I00
sS'rfc2109'
p45
I00
sS'discard'
p46
I00
sS'path_specified'
p47
I01
sS'path'
p48
g27
sS'port'
p49
NsS'comment_url'
p50
NsS'secure'
p51
I00
sbssssb.